; Function Attrs: null_pointer_is_valid sspstrong uwtable
define internal i32 @dissect_bitcoin(ptr noundef %0, ptr noundef %1, ptr noundef %2, ptr noundef %3) #0 {
  %5 = getelementptr inbounds nuw i8, ptr %1, i64 8
  %6 = load ptr, ptr %5, align 8
  tail call void @col_clear(ptr noundef %6, i32 noundef 25)
  %7 = load i8, ptr @bitcoin_desegment, align 1, !range !6, !noundef !7
  %8 = trunc nuw i8 %7 to i1
  tail call void @tcp_dissect_pdus(ptr noundef %0, ptr noundef %1, ptr noundef %2, i1 noundef zeroext %8, i32 noundef 24, ptr noundef nonnull @get_bitcoin_pdu_length, ptr noundef nonnull @dissect_bitcoin_tcp_pdu, ptr noundef %3)
  %9 = tail call i32 @tvb_reported_length(ptr noundef %0)
  ret i32 %9
}